target datalayout = "e-m:e-p270:32:32-p271:32:32-p272:64:64-i64:64-i128:128-f80:128-n8:16:32:64-S128"
target triple = "x86_64-unknown-linux-gnu"

%struct.b2Vec2 = type { float, float }
%struct.b2JointUserData = type { i64 }
%class.b2Body = type { i32, i16, i32, %struct.b2Transform, %struct.b2Sweep, %struct.b2Vec2, float, %struct.b2Vec2, float, ptr, ptr, ptr, ptr, i32, ptr, ptr, float, float, float, float, float, float, float, float, %struct.b2BodyUserData }
%struct.b2Transform = type { %struct.b2Vec2, %struct.b2Rot }
%struct.b2Rot = type { float, float }
%struct.b2Sweep = type { %struct.b2Vec2, %struct.b2Vec2, %struct.b2Vec2, float, float, float }
%struct.b2BodyUserData = type { i64 }
%class.b2PrismaticJoint = type <{ %class.b2Joint, %struct.b2Vec2, %struct.b2Vec2, %struct.b2Vec2, %struct.b2Vec2, float, %struct.b2Vec2, float, float, float, float, float, float, float, i8, i8, [2 x i8], i32, i32, %struct.b2Vec2, %struct.b2Vec2, float, float, float, float, %struct.b2Vec2, %struct.b2Vec2, float, float, float, float, %struct.b2Mat22, float, float, [4 x i8] }>
%class.b2Joint = type { ptr, i32, ptr, ptr, %struct.b2JointEdge, %struct.b2JointEdge, ptr, ptr, i32, i8, i8, %struct.b2JointUserData }
%struct.b2JointEdge = type { ptr, ptr, ptr, ptr }
%struct.b2Mat22 = type { %struct.b2Vec2, %struct.b2Vec2 }

; Function Attrs: mustprogress nounwind uwtable
define linkonce_odr hidden void @_ZN6b2Vec2C2Eff(ptr noundef nonnull align 4 dereferenceable(8) %this, float noundef %xIn, float noundef %yIn) unnamed_addr #2 comdat align 2 {
entry:
  %this.addr = alloca ptr, align 8
  %xIn.addr = alloca float, align 4
  %yIn.addr = alloca float, align 4
  store ptr %this, ptr %this.addr, align 8
  store float %xIn, ptr %xIn.addr, align 4
  store float %yIn, ptr %yIn.addr, align 4
  %this1 = load ptr, ptr %this.addr, align 8
  %x = getelementptr inbounds %struct.b2Vec2, ptr %this1, i32 0, i32 0
  %0 = load float, ptr %xIn.addr, align 4
  store float %0, ptr %x, align 4
  %y = getelementptr inbounds %struct.b2Vec2, ptr %this1, i32 0, i32 1
  %1 = load float, ptr %yIn.addr, align 4
  store float %1, ptr %y, align 4
  ret void
}

; Function Attrs: mustprogress nounwind uwtable
define linkonce_odr hidden noundef float @_Z5b2DotRK6b2Vec2S1_(ptr noundef nonnull align 4 dereferenceable(8) %a, ptr noundef nonnull align 4 dereferenceable(8) %b) #2 comdat {
entry:
  %a.addr = alloca ptr, align 8
  %b.addr = alloca ptr, align 8
  store ptr %a, ptr %a.addr, align 8
  store ptr %b, ptr %b.addr, align 8
  %0 = load ptr, ptr %a.addr, align 8
  %x = getelementptr inbounds %struct.b2Vec2, ptr %0, i32 0, i32 0
  %1 = load float, ptr %x, align 4
  %2 = load ptr, ptr %b.addr, align 8
  %x1 = getelementptr inbounds %struct.b2Vec2, ptr %2, i32 0, i32 0
  %3 = load float, ptr %x1, align 4
  %4 = load ptr, ptr %a.addr, align 8
  %y = getelementptr inbounds %struct.b2Vec2, ptr %4, i32 0, i32 1
  %5 = load float, ptr %y, align 4
  %6 = load ptr, ptr %b.addr, align 8
  %y2 = getelementptr inbounds %struct.b2Vec2, ptr %6, i32 0, i32 1
  %7 = load float, ptr %y2, align 4
  %mul3 = fmul float %5, %7
  %8 = call float @llvm.fmuladd.f32(float %1, float %3, float %mul3)
  ret float %8
}

; Function Attrs: mustprogress uwtable
define linkonce_odr hidden <2 x float> @_Z7b2CrossfRK6b2Vec2(float noundef %s, ptr noundef nonnull align 4 dereferenceable(8) %a) #0 comdat {
entry:
  %retval = alloca %struct.b2Vec2, align 4
  %s.addr = alloca float, align 4
  %a.addr = alloca ptr, align 8
  store float %s, ptr %s.addr, align 4
  store ptr %a, ptr %a.addr, align 8
  %0 = load float, ptr %s.addr, align 4
  %fneg = fneg float %0
  %1 = load ptr, ptr %a.addr, align 8
  %y = getelementptr inbounds %struct.b2Vec2, ptr %1, i32 0, i32 1
  %2 = load float, ptr %y, align 4
  %mul = fmul float %fneg, %2
  %3 = load float, ptr %s.addr, align 4
  %4 = load ptr, ptr %a.addr, align 8
  %x = getelementptr inbounds %struct.b2Vec2, ptr %4, i32 0, i32 0
  %5 = load float, ptr %x, align 4
  %mul1 = fmul float %3, %5
  call void @_ZN6b2Vec2C2Eff(ptr noundef nonnull align 4 dereferenceable(8) %retval, float noundef %mul, float noundef %mul1)
  %6 = load <2 x float>, ptr %retval, align 4
  ret <2 x float> %6
}

; Function Attrs: mustprogress uwtable
define linkonce_odr hidden <2 x float> @_ZplRK6b2Vec2S1_(ptr noundef nonnull align 4 dereferenceable(8) %a, ptr noundef nonnull align 4 dereferenceable(8) %b) #0 comdat {
entry:
  %retval = alloca %struct.b2Vec2, align 4
  %a.addr = alloca ptr, align 8
  %b.addr = alloca ptr, align 8
  store ptr %a, ptr %a.addr, align 8
  store ptr %b, ptr %b.addr, align 8
  %0 = load ptr, ptr %a.addr, align 8
  %x = getelementptr inbounds %struct.b2Vec2, ptr %0, i32 0, i32 0
  %1 = load float, ptr %x, align 4
  %2 = load ptr, ptr %b.addr, align 8
  %x1 = getelementptr inbounds %struct.b2Vec2, ptr %2, i32 0, i32 0
  %3 = load float, ptr %x1, align 4
  %add = fadd float %1, %3
  %4 = load ptr, ptr %a.addr, align 8
  %y = getelementptr inbounds %struct.b2Vec2, ptr %4, i32 0, i32 1
  %5 = load float, ptr %y, align 4
  %6 = load ptr, ptr %b.addr, align 8
  %y2 = getelementptr inbounds %struct.b2Vec2, ptr %6, i32 0, i32 1
  %7 = load float, ptr %y2, align 4
  %add3 = fadd float %5, %7
  call void @_ZN6b2Vec2C2Eff(ptr noundef nonnull align 4 dereferenceable(8) %retval, float noundef %add, float noundef %add3)
  %8 = load <2 x float>, ptr %retval, align 4
  ret <2 x float> %8
}

; Function Attrs: mustprogress uwtable
define linkonce_odr hidden <2 x float> @_Z5b2MulRK5b2RotRK6b2Vec2(ptr noundef nonnull align 4 dereferenceable(8) %q, ptr noundef nonnull align 4 dereferenceable(8) %v) #0 comdat {
entry:
  %retval = alloca %struct.b2Vec2, align 4
  %q.addr = alloca ptr, align 8
  %v.addr = alloca ptr, align 8
  store ptr %q, ptr %q.addr, align 8
  store ptr %v, ptr %v.addr, align 8
  %0 = load ptr, ptr %q.addr, align 8
  %c = getelementptr inbounds %struct.b2Rot, ptr %0, i32 0, i32 1
  %1 = load float, ptr %c, align 4
  %2 = load ptr, ptr %v.addr, align 8
  %x = getelementptr inbounds %struct.b2Vec2, ptr %2, i32 0, i32 0
  %3 = load float, ptr %x, align 4
  %4 = load ptr, ptr %q.addr, align 8
  %s = getelementptr inbounds %struct.b2Rot, ptr %4, i32 0, i32 0
  %5 = load float, ptr %s, align 4
  %6 = load ptr, ptr %v.addr, align 8
  %y = getelementptr inbounds %struct.b2Vec2, ptr %6, i32 0, i32 1
  %7 = load float, ptr %y, align 4
  %mul1 = fmul float %5, %7
  %neg = fneg float %mul1
  %8 = call float @llvm.fmuladd.f32(float %1, float %3, float %neg)
  %9 = load ptr, ptr %q.addr, align 8
  %s2 = getelementptr inbounds %struct.b2Rot, ptr %9, i32 0, i32 0
  %10 = load float, ptr %s2, align 4
  %11 = load ptr, ptr %v.addr, align 8
  %x3 = getelementptr inbounds %struct.b2Vec2, ptr %11, i32 0, i32 0
  %12 = load float, ptr %x3, align 4
  %13 = load ptr, ptr %q.addr, align 8
  %c4 = getelementptr inbounds %struct.b2Rot, ptr %13, i32 0, i32 1
  %14 = load float, ptr %c4, align 4
  %15 = load ptr, ptr %v.addr, align 8
  %y5 = getelementptr inbounds %struct.b2Vec2, ptr %15, i32 0, i32 1
  %16 = load float, ptr %y5, align 4
  %mul6 = fmul float %14, %16
  %17 = call float @llvm.fmuladd.f32(float %10, float %12, float %mul6)
  call void @_ZN6b2Vec2C2Eff(ptr noundef nonnull align 4 dereferenceable(8) %retval, float noundef %8, float noundef %17)
  %18 = load <2 x float>, ptr %retval, align 4
  ret <2 x float> %18
}

; Function Attrs: mustprogress uwtable
define linkonce_odr hidden <2 x float> @_ZmiRK6b2Vec2S1_(ptr noundef nonnull align 4 dereferenceable(8) %a, ptr noundef nonnull align 4 dereferenceable(8) %b) #0 comdat {
entry:
  %retval = alloca %struct.b2Vec2, align 4
  %a.addr = alloca ptr, align 8
  %b.addr = alloca ptr, align 8
  store ptr %a, ptr %a.addr, align 8
  store ptr %b, ptr %b.addr, align 8
  %0 = load ptr, ptr %a.addr, align 8
  %x = getelementptr inbounds %struct.b2Vec2, ptr %0, i32 0, i32 0
  %1 = load float, ptr %x, align 4
  %2 = load ptr, ptr %b.addr, align 8
  %x1 = getelementptr inbounds %struct.b2Vec2, ptr %2, i32 0, i32 0
  %3 = load float, ptr %x1, align 4
  %sub = fsub float %1, %3
  %4 = load ptr, ptr %a.addr, align 8
  %y = getelementptr inbounds %struct.b2Vec2, ptr %4, i32 0, i32 1
  %5 = load float, ptr %y, align 4
  %6 = load ptr, ptr %b.addr, align 8
  %y2 = getelementptr inbounds %struct.b2Vec2, ptr %6, i32 0, i32 1
  %7 = load float, ptr %y2, align 4
  %sub3 = fsub float %5, %7
  call void @_ZN6b2Vec2C2Eff(ptr noundef nonnull align 4 dereferenceable(8) %retval, float noundef %sub, float noundef %sub3)
  %8 = load <2 x float>, ptr %retval, align 4
  ret <2 x float> %8
}

; Function Attrs: mustprogress uwtable
define noundef float @_ZNK16b2PrismaticJoint13GetJointSpeedEv(ptr noundef nonnull align 8 dereferenceable(300) %this) #0 align 2 {
entry:
  %this.addr = alloca ptr, align 8
  %bA = alloca ptr, align 8
  %bB = alloca ptr, align 8
  %rA = alloca %struct.b2Vec2, align 4
  %ref.tmp = alloca %struct.b2Vec2, align 4
  %rB = alloca %struct.b2Vec2, align 4
  %ref.tmp5 = alloca %struct.b2Vec2, align 4
  %p1 = alloca %struct.b2Vec2, align 4
  %p2 = alloca %struct.b2Vec2, align 4
  %d = alloca %struct.b2Vec2, align 4
  %axis = alloca %struct.b2Vec2, align 4
  %vA = alloca %struct.b2Vec2, align 4
  %vB = alloca %struct.b2Vec2, align 4
  %wA = alloca float, align 4
  %wB = alloca float, align 4
  %speed = alloca float, align 4
  %ref.tmp21 = alloca %struct.b2Vec2, align 4
  %ref.tmp24 = alloca %struct.b2Vec2, align 4
  %ref.tmp25 = alloca %struct.b2Vec2, align 4
  %ref.tmp26 = alloca %struct.b2Vec2, align 4
  %ref.tmp27 = alloca %struct.b2Vec2, align 4
  %ref.tmp31 = alloca %struct.b2Vec2, align 4
  store ptr %this, ptr %this.addr, align 8
  %this1 = load ptr, ptr %this.addr, align 8
  %m_bodyA = getelementptr inbounds %class.b2Joint, ptr %this1, i32 0, i32 6
  %0 = load ptr, ptr %m_bodyA, align 8
  store ptr %0, ptr %bA, align 8
  %m_bodyB = getelementptr inbounds %class.b2Joint, ptr %this1, i32 0, i32 7
  %1 = load ptr, ptr %m_bodyB, align 8
  store ptr %1, ptr %bB, align 8
  %2 = load ptr, ptr %bA, align 8
  %m_xf = getelementptr inbounds %class.b2Body, ptr %2, i32 0, i32 3
  %q = getelementptr inbounds %struct.b2Transform, ptr %m_xf, i32 0, i32 1
  %m_localAnchorA = getelementptr inbounds %class.b2PrismaticJoint, ptr %this1, i32 0, i32 1
  %3 = load ptr, ptr %bA, align 8
  %m_sweep = getelementptr inbounds %class.b2Body, ptr %3, i32 0, i32 4
  %localCenter = getelementptr inbounds %struct.b2Sweep, ptr %m_sweep, i32 0, i32 0
  %call = call <2 x float> @_ZmiRK6b2Vec2S1_(ptr noundef nonnull align 4 dereferenceable(8) %m_localAnchorA, ptr noundef nonnull align 4 dereferenceable(8) %localCenter)
  store <2 x float> %call, ptr %ref.tmp, align 4
  %call2 = call <2 x float> @_Z5b2MulRK5b2RotRK6b2Vec2(ptr noundef nonnull align 4 dereferenceable(8) %q, ptr noundef nonnull align 4 dereferenceable(8) %ref.tmp)
  store <2 x float> %call2, ptr %rA, align 4
  %4 = load ptr, ptr %bB, align 8
  %m_xf3 = getelementptr inbounds %class.b2Body, ptr %4, i32 0, i32 3
  %q4 = getelementptr inbounds %struct.b2Transform, ptr %m_xf3, i32 0, i32 1
  %m_localAnchorB = getelementptr inbounds %class.b2PrismaticJoint, ptr %this1, i32 0, i32 2
  %5 = load ptr, ptr %bB, align 8
  %m_sweep6 = getelementptr inbounds %class.b2Body, ptr %5, i32 0, i32 4
  %localCenter7 = getelementptr inbounds %struct.b2Sweep, ptr %m_sweep6, i32 0, i32 0
  %call8 = call <2 x float> @_ZmiRK6b2Vec2S1_(ptr noundef nonnull align 4 dereferenceable(8) %m_localAnchorB, ptr noundef nonnull align 4 dereferenceable(8) %localCenter7)
  store <2 x float> %call8, ptr %ref.tmp5, align 4
  %call9 = call <2 x float> @_Z5b2MulRK5b2RotRK6b2Vec2(ptr noundef nonnull align 4 dereferenceable(8) %q4, ptr noundef nonnull align 4 dereferenceable(8) %ref.tmp5)
  store <2 x float> %call9, ptr %rB, align 4
  %6 = load ptr, ptr %bA, align 8
  %m_sweep10 = getelementptr inbounds %class.b2Body, ptr %6, i32 0, i32 4
  %c = getelementptr inbounds %struct.b2Sweep, ptr %m_sweep10, i32 0, i32 2
  %call11 = call <2 x float> @_ZplRK6b2Vec2S1_(ptr noundef nonnull align 4 dereferenceable(8) %c, ptr noundef nonnull align 4 dereferenceable(8) %rA)
  store <2 x float> %call11, ptr %p1, align 4
  %7 = load ptr, ptr %bB, align 8
  %m_sweep12 = getelementptr inbounds %class.b2Body, ptr %7, i32 0, i32 4
  %c13 = getelementptr inbounds %struct.b2Sweep, ptr %m_sweep12, i32 0, i32 2
  %call14 = call <2 x float> @_ZplRK6b2Vec2S1_(ptr noundef nonnull align 4 dereferenceable(8) %c13, ptr noundef nonnull align 4 dereferenceable(8) %rB)
  store <2 x float> %call14, ptr %p2, align 4
  %call15 = call <2 x float> @_ZmiRK6b2Vec2S1_(ptr noundef nonnull align 4 dereferenceable(8) %p2, ptr noundef nonnull align 4 dereferenceable(8) %p1)
  store <2 x float> %call15, ptr %d, align 4
  %8 = load ptr, ptr %bA, align 8
  %m_xf16 = getelementptr inbounds %class.b2Body, ptr %8, i32 0, i32 3
  %q17 = getelementptr inbounds %struct.b2Transform, ptr %m_xf16, i32 0, i32 1
  %m_localXAxisA = getelementptr inbounds %class.b2PrismaticJoint, ptr %this1, i32 0, i32 3
  %call18 = call <2 x float> @_Z5b2MulRK5b2RotRK6b2Vec2(ptr noundef nonnull align 4 dereferenceable(8) %q17, ptr noundef nonnull align 4 dereferenceable(8) %m_localXAxisA)
  store <2 x float> %call18, ptr %axis, align 4
  %9 = load ptr, ptr %bA, align 8
  %m_linearVelocity = getelementptr inbounds %class.b2Body, ptr %9, i32 0, i32 5
  call void @llvm.memcpy.p0.p0.i64(ptr align 4 %vA, ptr align 8 %m_linearVelocity, i64 8, i1 false)
  %10 = load ptr, ptr %bB, align 8
  %m_linearVelocity19 = getelementptr inbounds %class.b2Body, ptr %10, i32 0, i32 5
  call void @llvm.memcpy.p0.p0.i64(ptr align 4 %vB, ptr align 8 %m_linearVelocity19, i64 8, i1 false)
  %11 = load ptr, ptr %bA, align 8
  %m_angularVelocity = getelementptr inbounds %class.b2Body, ptr %11, i32 0, i32 6
  %12 = load float, ptr %m_angularVelocity, align 8
  store float %12, ptr %wA, align 4
  %13 = load ptr, ptr %bB, align 8
  %m_angularVelocity20 = getelementptr inbounds %class.b2Body, ptr %13, i32 0, i32 6
  %14 = load float, ptr %m_angularVelocity20, align 8
  store float %14, ptr %wB, align 4
  %15 = load float, ptr %wA, align 4
  %call22 = call <2 x float> @_Z7b2CrossfRK6b2Vec2(float noundef %15, ptr noundef nonnull align 4 dereferenceable(8) %axis)
  store <2 x float> %call22, ptr %ref.tmp21, align 4
  %call23 = call noundef float @_Z5b2DotRK6b2Vec2S1_(ptr noundef nonnull align 4 dereferenceable(8) %d, ptr noundef nonnull align 4 dereferenceable(8) %ref.tmp21)
  %16 = load float, ptr %wB, align 4
  %call28 = call <2 x float> @_Z7b2CrossfRK6b2Vec2(float noundef %16, ptr noundef nonnull align 4 dereferenceable(8) %rB)
  store <2 x float> %call28, ptr %ref.tmp27, align 4
  %call29 = call <2 x float> @_ZplRK6b2Vec2S1_(ptr noundef nonnull align 4 dereferenceable(8) %vB, ptr noundef nonnull align 4 dereferenceable(8) %ref.tmp27)
  store <2 x float> %call29, ptr %ref.tmp26, align 4
  %call30 = call <2 x float> @_ZmiRK6b2Vec2S1_(ptr noundef nonnull align 4 dereferenceable(8) %ref.tmp26, ptr noundef nonnull align 4 dereferenceable(8) %vA)
  store <2 x float> %call30, ptr %ref.tmp25, align 4
  %17 = load float, ptr %wA, align 4
  %call32 = call <2 x float> @_Z7b2CrossfRK6b2Vec2(float noundef %17, ptr noundef nonnull align 4 dereferenceable(8) %rA)
  store <2 x float> %call32, ptr %ref.tmp31, align 4
  %call33 = call <2 x float> @_ZmiRK6b2Vec2S1_(ptr noundef nonnull align 4 dereferenceable(8) %ref.tmp25, ptr noundef nonnull align 4 dereferenceable(8) %ref.tmp31)
  store <2 x float> %call33, ptr %ref.tmp24, align 4
  %call34 = call noundef float @_Z5b2DotRK6b2Vec2S1_(ptr noundef nonnull align 4 dereferenceable(8) %axis, ptr noundef nonnull align 4 dereferenceable(8) %ref.tmp24)
  %add = fadd float %call23, %call34
  store float %add, ptr %speed, align 4
  %18 = load float, ptr %speed, align 4
  ret float %18
}